; Function Attrs: mustprogress nofree nounwind willreturn memory(read) uwtable
define noundef i64 @_ZN11OpenImageIO6v3_1_07Strutil6irfindENS0_17basic_string_viewIcSt11char_traitsIcEEES5_(ptr noundef readonly captures(none) %0, ptr noundef readonly captures(none) %1) local_unnamed_addr #22 {
  %3 = getelementptr inbounds nuw i8, ptr %0, i64 8
  %4 = load i64, ptr %3, align 8, !tbaa !64
  %5 = icmp eq i64 %4, 0
  br i1 %5, label %.thread, label %6

6:                                                ; preds = %2
  %7 = getelementptr inbounds nuw i8, ptr %1, i64 8
  %8 = load i64, ptr %7, align 8, !tbaa !64
  %9 = icmp eq i64 %8, 0
  br i1 %9, label %.thread, label %10

10:                                               ; preds = %6
  %.not = icmp ugt i64 %8, %4
  br i1 %.not, label %.thread, label %.lr.ph

.lr.ph:                                           ; preds = %10
  %11 = load ptr, ptr %0, align 8, !tbaa !67
  %12 = sub nuw i64 %4, %8
  %13 = getelementptr inbounds nuw i8, ptr %11, i64 %12
  %14 = load ptr, ptr %1, align 8, !tbaa !67
  %15 = load ptr, ptr @_ZN11OpenImageIO6v3_1_012_GLOBAL__N_15c_locE, align 8, !tbaa !232
  br label %16

16:                                               ; preds = %.lr.ph, %19
  %.0512 = phi ptr [ %13, %.lr.ph ], [ %20, %19 ]
  %17 = tail call noundef i32 @strncasecmp_l(ptr noundef %.0512, ptr noundef %14, i64 noundef %8, ptr noundef %15) #49
  %18 = icmp eq i32 %17, 0
  br i1 %18, label %21, label %19

19:                                               ; preds = %16
  %20 = getelementptr inbounds i8, ptr %.0512, i64 -1
  %.not7.not = icmp ult ptr %20, %11
  br i1 %.not7.not, label %.thread, label %16, !llvm.loop !261

21:                                               ; preds = %16
  %22 = ptrtoint ptr %.0512 to i64
  %23 = ptrtoint ptr %11 to i64
  %24 = sub i64 %22, %23
  br label %.thread

.thread:                                          ; preds = %19, %10, %21, %6, %2
  %.06 = phi i64 [ %24, %21 ], [ -1, %2 ], [ %4, %6 ], [ -1, %10 ], [ -1, %19 ]
  ret i64 %.06
}